; Function Attrs: nounwind uwtable
define internal fastcc void @PrintFinalStats(ptr noundef %0) unnamed_addr #0 {
  %2 = alloca i64, align 8
  %3 = alloca i64, align 8
  %4 = alloca i64, align 8
  %5 = alloca i64, align 8
  %6 = alloca i64, align 8
  %7 = alloca i64, align 8
  %8 = alloca i64, align 8
  call void @llvm.lifetime.start.p0(i64 8, ptr nonnull %2) #10
  call void @llvm.lifetime.start.p0(i64 8, ptr nonnull %3) #10
  call void @llvm.lifetime.start.p0(i64 8, ptr nonnull %4) #10
  call void @llvm.lifetime.start.p0(i64 8, ptr nonnull %5) #10
  call void @llvm.lifetime.start.p0(i64 8, ptr nonnull %6) #10
  call void @llvm.lifetime.start.p0(i64 8, ptr nonnull %7) #10
  call void @llvm.lifetime.start.p0(i64 8, ptr nonnull %8) #10
  %9 = call i32 @KINGetNumNonlinSolvIters(ptr noundef %0, ptr noundef nonnull %2) #10
  %10 = icmp slt i32 %9, 0
  br i1 %10, label %11, label %check_retval.exit

11:                                               ; preds = %1
  %12 = load ptr, ptr @stderr, align 8, !tbaa !4
  %13 = call i32 (ptr, ptr, ...) @fprintf(ptr noundef %12, ptr noundef nonnull @.str.43, ptr noundef nonnull @.str.31, i32 noundef %9) #11
  br label %check_retval.exit

check_retval.exit:                                ; preds = %1, %11
  %14 = call i32 @KINGetNumFuncEvals(ptr noundef %0, ptr noundef nonnull %3) #10
  %15 = icmp slt i32 %14, 0
  br i1 %15, label %16, label %check_retval.exit8

16:                                               ; preds = %check_retval.exit
  %17 = load ptr, ptr @stderr, align 8, !tbaa !4
  %18 = call i32 (ptr, ptr, ...) @fprintf(ptr noundef %17, ptr noundef nonnull @.str.43, ptr noundef nonnull @.str.32, i32 noundef %14) #11
  br label %check_retval.exit8

check_retval.exit8:                               ; preds = %check_retval.exit, %16
  %19 = call i32 @KINGetNumLinIters(ptr noundef %0, ptr noundef nonnull %4) #10
  %20 = icmp slt i32 %19, 0
  br i1 %20, label %21, label %check_retval.exit10

21:                                               ; preds = %check_retval.exit8
  %22 = load ptr, ptr @stderr, align 8, !tbaa !4
  %23 = call i32 (ptr, ptr, ...) @fprintf(ptr noundef %22, ptr noundef nonnull @.str.43, ptr noundef nonnull @.str.33, i32 noundef %19) #11
  br label %check_retval.exit10

check_retval.exit10:                              ; preds = %check_retval.exit8, %21
  %24 = call i32 @KINGetNumPrecEvals(ptr noundef %0, ptr noundef nonnull %5) #10
  %25 = icmp slt i32 %24, 0
  br i1 %25, label %26, label %check_retval.exit12

26:                                               ; preds = %check_retval.exit10
  %27 = load ptr, ptr @stderr, align 8, !tbaa !4
  %28 = call i32 (ptr, ptr, ...) @fprintf(ptr noundef %27, ptr noundef nonnull @.str.43, ptr noundef nonnull @.str.34, i32 noundef %24) #11
  br label %check_retval.exit12

check_retval.exit12:                              ; preds = %check_retval.exit10, %26
  %29 = call i32 @KINGetNumPrecSolves(ptr noundef %0, ptr noundef nonnull %6) #10
  %30 = icmp slt i32 %29, 0
  br i1 %30, label %31, label %check_retval.exit14

31:                                               ; preds = %check_retval.exit12
  %32 = load ptr, ptr @stderr, align 8, !tbaa !4
  %33 = call i32 (ptr, ptr, ...) @fprintf(ptr noundef %32, ptr noundef nonnull @.str.43, ptr noundef nonnull @.str.35, i32 noundef %29) #11
  br label %check_retval.exit14

check_retval.exit14:                              ; preds = %check_retval.exit12, %31
  %34 = call i32 @KINGetNumLinConvFails(ptr noundef %0, ptr noundef nonnull %7) #10
  %35 = icmp slt i32 %34, 0
  br i1 %35, label %36, label %check_retval.exit16

36:                                               ; preds = %check_retval.exit14
  %37 = load ptr, ptr @stderr, align 8, !tbaa !4
  %38 = call i32 (ptr, ptr, ...) @fprintf(ptr noundef %37, ptr noundef nonnull @.str.43, ptr noundef nonnull @.str.36, i32 noundef %34) #11
  br label %check_retval.exit16

check_retval.exit16:                              ; preds = %check_retval.exit14, %36
  %39 = call i32 @KINGetNumLinFuncEvals(ptr noundef %0, ptr noundef nonnull %8) #10
  %40 = icmp slt i32 %39, 0
  br i1 %40, label %41, label %check_retval.exit18

41:                                               ; preds = %check_retval.exit16
  %42 = load ptr, ptr @stderr, align 8, !tbaa !4
  %43 = call i32 (ptr, ptr, ...) @fprintf(ptr noundef %42, ptr noundef nonnull @.str.43, ptr noundef nonnull @.str.37, i32 noundef %39) #11
  br label %check_retval.exit18

check_retval.exit18:                              ; preds = %check_retval.exit16, %41
  %puts = call i32 @puts(ptr nonnull dereferenceable(1) @str.6)
  %44 = load i64, ptr %2, align 8, !tbaa !44
  %45 = load i64, ptr %4, align 8, !tbaa !44
  %46 = call i32 (ptr, ...) @printf(ptr noundef nonnull dereferenceable(1) @.str.39, i64 noundef %44, i64 noundef %45)
  %47 = load i64, ptr %3, align 8, !tbaa !44
  %48 = load i64, ptr %8, align 8, !tbaa !44
  %49 = call i32 (ptr, ...) @printf(ptr noundef nonnull dereferenceable(1) @.str.40, i64 noundef %47, i64 noundef %48)
  %50 = load i64, ptr %6, align 8, !tbaa !44
  %51 = load i64, ptr %5, align 8, !tbaa !44
  %52 = load i64, ptr %7, align 8, !tbaa !44
  %53 = call i32 (ptr, ...) @printf(ptr noundef nonnull dereferenceable(1) @.str.41, i64 noundef %50, i64 noundef %51, i64 noundef %52)
  call void @llvm.lifetime.end.p0(i64 8, ptr nonnull %8) #10
  call void @llvm.lifetime.end.p0(i64 8, ptr nonnull %7) #10
  call void @llvm.lifetime.end.p0(i64 8, ptr nonnull %6) #10
  call void @llvm.lifetime.end.p0(i64 8, ptr nonnull %5) #10
  call void @llvm.lifetime.end.p0(i64 8, ptr nonnull %4) #10
  call void @llvm.lifetime.end.p0(i64 8, ptr nonnull %3) #10
  call void @llvm.lifetime.end.p0(i64 8, ptr nonnull %2) #10
  ret void
}